; Function Attrs: mustprogress nofree norecurse nosync nounwind willreturn memory(argmem: write) uwtable
define dso_local void @Curl_bufq_init2(ptr noundef writeonly captures(none) initializes((0, 64)) %0, i64 noundef %1, i64 noundef %2, i32 noundef %3) local_unnamed_addr #0 {
  tail call void @llvm.memset.p0.i64(ptr noundef nonnull align 8 dereferenceable(64) %0, i8 0, i64 64, i1 false)
  %5 = getelementptr inbounds nuw i8, ptr %0, i64 48
  store i64 %1, ptr %5, align 8
  %6 = getelementptr inbounds nuw i8, ptr %0, i64 40
  store i64 %2, ptr %6, align 8
  %7 = getelementptr inbounds nuw i8, ptr %0, i64 56
  store i32 %3, ptr %7, align 8
  ret void
}